target datalayout = "e-m:e-p270:32:32-p271:32:32-p272:64:64-i64:64-i128:128-f80:128-n8:16:32:64-S128"
target triple = "x86_64-pc-linux-gnu"

%"struct.ue2::FDREngineDef" = type { i32, i32, i32, i64 }
%"struct.ue2::target_t" = type { i32, i64 }
%"class.ue2::FDREngineDescription" = type { %"class.ue2::EngineDescription.base", i32, i32, i32 }
%"class.ue2::EngineDescription.base" = type <{ ptr, i32, [4 x i8], %"struct.ue2::target_t", i32 }>
%"class.ue2::EngineDescription" = type <{ ptr, i32, [4 x i8], %"struct.ue2::target_t", i32, [4 x i8] }>

@_ZTVN3ue220FDREngineDescriptionE = hidden unnamed_addr constant { [5 x ptr] } { [5 x ptr] [ptr null, ptr @_ZTIN3ue220FDREngineDescriptionE, ptr @_ZN3ue217EngineDescriptionD2Ev, ptr @_ZN3ue220FDREngineDescriptionD0Ev, ptr @_ZNK3ue220FDREngineDescription27getDefaultFloodSuffixLengthEv] }, align 8
@_ZTVN3ue217EngineDescriptionE = external unnamed_addr constant { [5 x ptr] }, align 8

; Function Attrs: mustprogress nounwind uwtable
define linkonce_odr hidden void @_ZN3ue217EngineDescriptionC2EjRKNS_8target_tEj(ptr noundef nonnull align 8 dereferenceable(36) %0, i32 noundef %1, ptr noundef nonnull align 8 dereferenceable(16) %2, i32 noundef %3) unnamed_addr #3 comdat align 2 {
  %5 = alloca ptr, align 8
  %6 = alloca i32, align 4
  %7 = alloca ptr, align 8
  %8 = alloca i32, align 4
  store ptr %0, ptr %5, align 8
  store i32 %1, ptr %6, align 4
  store ptr %2, ptr %7, align 8
  store i32 %3, ptr %8, align 4
  %9 = load ptr, ptr %5, align 8
  store ptr getelementptr inbounds inrange(-16, 24) ({ [5 x ptr] }, ptr @_ZTVN3ue217EngineDescriptionE, i32 0, i32 0, i32 2), ptr %9, align 8
  %10 = getelementptr inbounds nuw %"class.ue2::EngineDescription", ptr %9, i32 0, i32 1
  %11 = load i32, ptr %6, align 4
  store i32 %11, ptr %10, align 8
  %12 = getelementptr inbounds nuw %"class.ue2::EngineDescription", ptr %9, i32 0, i32 3
  %13 = load ptr, ptr %7, align 8
  call void @llvm.memcpy.p0.p0.i64(ptr align 8 %12, ptr align 8 %13, i64 16, i1 false)
  %14 = getelementptr inbounds nuw %"class.ue2::EngineDescription", ptr %9, i32 0, i32 4
  %15 = load i32, ptr %8, align 4
  store i32 %15, ptr %14, align 8
  ret void
}

; Function Attrs: mustprogress uwtable
define hidden void @_ZN3ue220FDREngineDescriptionC2ERKNS_12FDREngineDefE(ptr noundef nonnull align 8 dereferenceable(48) %0, ptr noundef nonnull align 8 dereferenceable(24) %1) unnamed_addr #0 align 2 {
  %3 = alloca ptr, align 8
  %4 = alloca ptr, align 8
  %5 = alloca %"struct.ue2::target_t", align 8
  store ptr %0, ptr %3, align 8
  store ptr %1, ptr %4, align 8
  %6 = load ptr, ptr %3, align 8
  %7 = load ptr, ptr %4, align 8
  %8 = getelementptr inbounds nuw %"struct.ue2::FDREngineDef", ptr %7, i32 0, i32 0
  %9 = load i32, ptr %8, align 8
  call void @llvm.lifetime.start.p0(i64 16, ptr %5) #14
  %10 = load ptr, ptr %4, align 8
  %11 = getelementptr inbounds nuw %"struct.ue2::FDREngineDef", ptr %10, i32 0, i32 3
  %12 = load i64, ptr %11, align 8
  %13 = call { i32, i64 } @_ZN3ue220targetByArchFeaturesEy(i64 noundef %12)
  %14 = getelementptr inbounds nuw { i32, i64 }, ptr %5, i32 0, i32 0
  %15 = extractvalue { i32, i64 } %13, 0
  store i32 %15, ptr %14, align 8
  %16 = getelementptr inbounds nuw { i32, i64 }, ptr %5, i32 0, i32 1
  %17 = extractvalue { i32, i64 } %13, 1
  store i64 %17, ptr %16, align 8
  %18 = load ptr, ptr %4, align 8
  %19 = getelementptr inbounds nuw %"struct.ue2::FDREngineDef", ptr %18, i32 0, i32 2
  %20 = load i32, ptr %19, align 8
  call void @_ZN3ue217EngineDescriptionC2EjRKNS_8target_tEj(ptr noundef nonnull align 8 dereferenceable(36) %6, i32 noundef %9, ptr noundef nonnull align 8 dereferenceable(16) %5, i32 noundef %20)
  call void @llvm.lifetime.end.p0(i64 16, ptr %5) #14
  store ptr getelementptr inbounds inrange(-16, 24) ({ [5 x ptr] }, ptr @_ZTVN3ue220FDREngineDescriptionE, i32 0, i32 0, i32 2), ptr %6, align 8
  %21 = getelementptr inbounds nuw %"class.ue2::FDREngineDescription", ptr %6, i32 0, i32 1
  %22 = load ptr, ptr %4, align 8
  %23 = getelementptr inbounds nuw %"struct.ue2::FDREngineDef", ptr %22, i32 0, i32 1
  %24 = load i32, ptr %23, align 4
  store i32 %24, ptr %21, align 4
  %25 = getelementptr inbounds nuw %"class.ue2::FDREngineDescription", ptr %6, i32 0, i32 2
  store i32 0, ptr %25, align 8
  %26 = getelementptr inbounds nuw %"class.ue2::FDREngineDescription", ptr %6, i32 0, i32 3
  store i32 0, ptr %26, align 4
  ret void
}