; Function Attrs: mustprogress uwtable
define hidden void @_ZN3ue220FDREngineDescriptionC2ERKNS_12FDREngineDefE(ptr noundef nonnull writeonly align 8 captures(none) dereferenceable(48) initializes((0, 12), (16, 20), (24, 48)) %0, ptr noundef nonnull readonly align 8 captures(none) dereferenceable(24) %1) unnamed_addr #0 align 2 {
  %3 = load i32, ptr %1, align 8
  %4 = getelementptr inbounds nuw i8, ptr %1, i64 16
  %5 = load i64, ptr %4, align 8
  %6 = tail call { i32, i64 } @_ZN3ue220targetByArchFeaturesEy(i64 noundef %5)
  %7 = extractvalue { i32, i64 } %6, 0
  %8 = extractvalue { i32, i64 } %6, 1
  %9 = getelementptr inbounds nuw i8, ptr %1, i64 8
  %10 = load i32, ptr %9, align 8
  %11 = getelementptr inbounds nuw i8, ptr %0, i64 8
  store i32 %3, ptr %11, align 8
  %12 = getelementptr inbounds nuw i8, ptr %0, i64 16
  store i32 %7, ptr %12, align 8
  %.sroa.45.0..sroa_idx = getelementptr inbounds nuw i8, ptr %0, i64 24
  store i64 %8, ptr %.sroa.45.0..sroa_idx, align 8
  %13 = getelementptr inbounds nuw i8, ptr %0, i64 32
  store i32 %10, ptr %13, align 8
  store ptr getelementptr inbounds nuw inrange(-16, 24) (i8, ptr @_ZTVN3ue220FDREngineDescriptionE, i64 16), ptr %0, align 8
  %14 = getelementptr inbounds nuw i8, ptr %0, i64 36
  %15 = getelementptr inbounds nuw i8, ptr %1, i64 4
  %16 = load i32, ptr %15, align 4
  store i32 %16, ptr %14, align 4
  %17 = getelementptr inbounds nuw i8, ptr %0, i64 40
  store i32 0, ptr %17, align 8
  %18 = getelementptr inbounds nuw i8, ptr %0, i64 44
  store i32 0, ptr %18, align 4
  ret void
}